target datalayout = "e-m:e-p270:32:32-p271:32:32-p272:64:64-i64:64-i128:128-f80:128-n8:16:32:64-S128"
target triple = "x86_64-pc-linux-gnu"

%struct.ItemPointerData = type { %struct.BlockIdData, i16 }
%struct.BlockIdData = type { i16, i16 }
%struct.LOCKTAG = type { i32, i32, i32, i16, i8, i8 }
%struct.HeapTupleData = type { i32, %struct.ItemPointerData, i32, ptr }
%struct.catcache = type { i32, i32, ptr, ptr, [4 x ptr], [4 x ptr], [4 x i32], i32, i32, i32, i32, ptr, ptr, i32, i32, i8, %struct.slist_node, [4 x %struct.ScanKeyData] }
%struct.slist_node = type { ptr }
%struct.ScanKeyData = type { i32, i16, i16, i32, i32, %struct.FmgrInfo, i64 }
%struct.FmgrInfo = type { ptr, i32, i16, i8, i8, i8, ptr, ptr, ptr }

@SysCache = internal global [85 x ptr] zeroinitializer, align 16
@MyDatabaseId = external global i32, align 4

; Function Attrs: inlinehint nounwind uwtable
define internal i32 @BlockIdGetBlockNumber(ptr noundef %0) #4 {
  %2 = alloca ptr, align 8
  store ptr %0, ptr %2, align 8
  %3 = load ptr, ptr %2, align 8
  %4 = getelementptr inbounds nuw %struct.BlockIdData, ptr %3, i32 0, i32 0
  %5 = load i16, ptr %4, align 2
  %6 = zext i16 %5 to i32
  %7 = shl i32 %6, 16
  %8 = load ptr, ptr %2, align 8
  %9 = getelementptr inbounds nuw %struct.BlockIdData, ptr %8, i32 0, i32 1
  %10 = load i16, ptr %9, align 2
  %11 = zext i16 %10 to i32
  %12 = or i32 %7, %11
  ret i32 %12
}

; Function Attrs: inlinehint nounwind uwtable
define internal zeroext i16 @ItemPointerGetOffsetNumberNoCheck(ptr noundef %0) #4 {
  %2 = alloca ptr, align 8
  store ptr %0, ptr %2, align 8
  %3 = load ptr, ptr %2, align 8
  %4 = getelementptr inbounds nuw %struct.ItemPointerData, ptr %3, i32 0, i32 1
  %5 = load i16, ptr %4, align 2
  ret i16 %5
}

; Function Attrs: inlinehint nounwind uwtable
define internal i32 @ItemPointerGetBlockNumberNoCheck(ptr noundef %0) #4 {
  %2 = alloca ptr, align 8
  store ptr %0, ptr %2, align 8
  %3 = load ptr, ptr %2, align 8
  %4 = getelementptr inbounds nuw %struct.ItemPointerData, ptr %3, i32 0, i32 0
  %5 = call i32 @BlockIdGetBlockNumber(ptr noundef %4)
  ret i32 %5
}

; Function Attrs: inlinehint nounwind uwtable
define internal void @BlockIdSet(ptr noundef %0, i32 noundef %1) #4 {
  %3 = alloca ptr, align 8
  %4 = alloca i32, align 4
  store ptr %0, ptr %3, align 8
  store i32 %1, ptr %4, align 4
  %5 = load i32, ptr %4, align 4
  %6 = lshr i32 %5, 16
  %7 = trunc i32 %6 to i16
  %8 = load ptr, ptr %3, align 8
  %9 = getelementptr inbounds nuw %struct.BlockIdData, ptr %8, i32 0, i32 0
  store i16 %7, ptr %9, align 2
  %10 = load i32, ptr %4, align 4
  %11 = and i32 %10, 65535
  %12 = trunc i32 %11 to i16
  %13 = load ptr, ptr %3, align 8
  %14 = getelementptr inbounds nuw %struct.BlockIdData, ptr %13, i32 0, i32 1
  store i16 %12, ptr %14, align 2
  ret void
}

; Function Attrs: inlinehint nounwind uwtable
define internal zeroext i16 @ItemPointerGetOffsetNumber(ptr noundef %0) #4 {
  %2 = alloca ptr, align 8
  store ptr %0, ptr %2, align 8
  %3 = load ptr, ptr %2, align 8
  %4 = call zeroext i16 @ItemPointerGetOffsetNumberNoCheck(ptr noundef %3)
  ret i16 %4
}

; Function Attrs: inlinehint nounwind uwtable
define internal i32 @ItemPointerGetBlockNumber(ptr noundef %0) #4 {
  %2 = alloca ptr, align 8
  store ptr %0, ptr %2, align 8
  %3 = load ptr, ptr %2, align 8
  %4 = call i32 @ItemPointerGetBlockNumberNoCheck(ptr noundef %3)
  ret i32 %4
}

; Function Attrs: nounwind uwtable
define dso_local void @ReleaseSysCache(ptr noundef %0) #0 {
  %2 = alloca ptr, align 8
  store ptr %0, ptr %2, align 8
  %3 = load ptr, ptr %2, align 8
  call void @ReleaseCatCache(ptr noundef %3)
  ret void
}

; Function Attrs: inlinehint nounwind uwtable
define internal zeroext i1 @ItemPointerIsValid(ptr noundef %0) #4 {
  %2 = alloca ptr, align 8
  store ptr %0, ptr %2, align 8
  %3 = load ptr, ptr %2, align 8
  %4 = icmp ne ptr %3, null
  br i1 %4, label %5, label %11

5:                                                ; preds = %1
  %6 = load ptr, ptr %2, align 8
  %7 = getelementptr inbounds nuw %struct.ItemPointerData, ptr %6, i32 0, i32 1
  %8 = load i16, ptr %7, align 2
  %9 = zext i16 %8 to i32
  %10 = icmp ne i32 %9, 0
  br label %11

11:                                               ; preds = %5, %1
  %12 = phi i1 [ false, %1 ], [ %10, %5 ]
  ret i1 %12
}

; Function Attrs: nounwind uwtable
define dso_local ptr @SearchSysCache1(i32 noundef %0, i64 noundef %1) #0 {
  %3 = alloca i32, align 4
  %4 = alloca i64, align 8
  store i32 %0, ptr %3, align 4
  store i64 %1, ptr %4, align 8
  %5 = load i32, ptr %3, align 4
  %6 = sext i32 %5 to i64
  %7 = getelementptr inbounds [85 x ptr], ptr @SysCache, i64 0, i64 %6
  %8 = load ptr, ptr %7, align 8
  %9 = load i64, ptr %4, align 8
  %10 = call ptr @SearchCatCache1(ptr noundef %8, i64 noundef %9)
  ret ptr %10
}

; Function Attrs: inlinehint nounwind uwtable
define internal void @ItemPointerSetInvalid(ptr noundef %0) #4 {
  %2 = alloca ptr, align 8
  store ptr %0, ptr %2, align 8
  %3 = load ptr, ptr %2, align 8
  %4 = getelementptr inbounds nuw %struct.ItemPointerData, ptr %3, i32 0, i32 0
  call void @BlockIdSet(ptr noundef %4, i32 noundef -1)
  %5 = load ptr, ptr %2, align 8
  %6 = getelementptr inbounds nuw %struct.ItemPointerData, ptr %5, i32 0, i32 1
  store i16 0, ptr %6, align 2
  ret void
}

; Function Attrs: nounwind uwtable
define dso_local ptr @SearchSysCacheLocked1(i32 noundef %0, i64 noundef %1) #0 {
  %3 = alloca ptr, align 8
  %4 = alloca i32, align 4
  %5 = alloca i64, align 8
  %6 = alloca ptr, align 8
  %7 = alloca %struct.ItemPointerData, align 2
  %8 = alloca %struct.LOCKTAG, align 4
  %9 = alloca ptr, align 8
  %10 = alloca i32, align 4
  %11 = alloca i32, align 4
  store i32 %0, ptr %4, align 4
  store i64 %1, ptr %5, align 8
  call void @llvm.lifetime.start.p0(i64 8, ptr %6) #6
  %12 = load i32, ptr %4, align 4
  %13 = sext i32 %12 to i64
  %14 = getelementptr inbounds [85 x ptr], ptr @SysCache, i64 0, i64 %13
  %15 = load ptr, ptr %14, align 8
  store ptr %15, ptr %6, align 8
  call void @llvm.lifetime.start.p0(i64 6, ptr %7) #6
  call void @llvm.lifetime.start.p0(i64 16, ptr %8) #6
  call void @ItemPointerSetInvalid(ptr noundef %7)
  br label %16

16:                                               ; preds = %71, %2
  call void @llvm.lifetime.start.p0(i64 8, ptr %9) #6
  call void @llvm.lifetime.start.p0(i64 4, ptr %10) #6
  store i32 7, ptr %10, align 4
  %17 = load i32, ptr %4, align 4
  %18 = load i64, ptr %5, align 8
  %19 = call ptr @SearchSysCache1(i32 noundef %17, i64 noundef %18)
  store ptr %19, ptr %9, align 8
  %20 = call zeroext i1 @ItemPointerIsValid(ptr noundef %7)
  br i1 %20, label %21, label %37

21:                                               ; preds = %16
  %22 = load ptr, ptr %9, align 8
  %23 = icmp ne ptr %22, null
  br i1 %23, label %28, label %24

24:                                               ; preds = %21
  %25 = load i32, ptr %10, align 4
  %26 = call zeroext i1 @LockRelease(ptr noundef %8, i32 noundef %25, i1 noundef zeroext false)
  %27 = load ptr, ptr %9, align 8
  store ptr %27, ptr %3, align 8
  store i32 1, ptr %11, align 4
  br label %69

28:                                               ; preds = %21
  %29 = load ptr, ptr %9, align 8
  %30 = getelementptr inbounds nuw %struct.HeapTupleData, ptr %29, i32 0, i32 1
  %31 = call zeroext i1 @ItemPointerEquals(ptr noundef %7, ptr noundef %30)
  br i1 %31, label %32, label %34

32:                                               ; preds = %28
  %33 = load ptr, ptr %9, align 8
  store ptr %33, ptr %3, align 8
  store i32 1, ptr %11, align 4
  br label %69

34:                                               ; preds = %28
  %35 = load i32, ptr %10, align 4
  %36 = call zeroext i1 @LockRelease(ptr noundef %8, i32 noundef %35, i1 noundef zeroext false)
  br label %43

37:                                               ; preds = %16
  %38 = load ptr, ptr %9, align 8
  %39 = icmp ne ptr %38, null
  br i1 %39, label %42, label %40

40:                                               ; preds = %37
  %41 = load ptr, ptr %9, align 8
  store ptr %41, ptr %3, align 8
  store i32 1, ptr %11, align 4
  br label %69

42:                                               ; preds = %37
  br label %43

43:                                               ; preds = %42, %34
  %44 = load ptr, ptr %9, align 8
  %45 = getelementptr inbounds nuw %struct.HeapTupleData, ptr %44, i32 0, i32 1
  call void @llvm.memcpy.p0.p0.i64(ptr align 2 %7, ptr align 4 %45, i64 6, i1 false)
  %46 = load ptr, ptr %9, align 8
  call void @ReleaseSysCache(ptr noundef %46)
  %47 = load ptr, ptr %6, align 8
  %48 = getelementptr inbounds nuw %struct.catcache, ptr %47, i32 0, i32 15
  %49 = load i8, ptr %48, align 8, !range !8, !noundef !9
  %50 = trunc i8 %49 to i1
  br i1 %50, label %51, label %52

51:                                               ; preds = %43
  br label %54

52:                                               ; preds = %43
  %53 = load i32, ptr @MyDatabaseId, align 4
  br label %54

54:                                               ; preds = %52, %51
  %55 = phi i32 [ 0, %51 ], [ %53, %52 ]
  %56 = getelementptr inbounds nuw %struct.LOCKTAG, ptr %8, i32 0, i32 0
  store i32 %55, ptr %56, align 4
  %57 = load ptr, ptr %6, align 8
  %58 = getelementptr inbounds nuw %struct.catcache, ptr %57, i32 0, i32 13
  %59 = load i32, ptr %58, align 8
  %60 = getelementptr inbounds nuw %struct.LOCKTAG, ptr %8, i32 0, i32 1
  store i32 %59, ptr %60, align 4
  %61 = call i32 @ItemPointerGetBlockNumber(ptr noundef %7)
  %62 = getelementptr inbounds nuw %struct.LOCKTAG, ptr %8, i32 0, i32 2
  store i32 %61, ptr %62, align 4
  %63 = call zeroext i16 @ItemPointerGetOffsetNumber(ptr noundef %7)
  %64 = getelementptr inbounds nuw %struct.LOCKTAG, ptr %8, i32 0, i32 3
  store i16 %63, ptr %64, align 4
  %65 = getelementptr inbounds nuw %struct.LOCKTAG, ptr %8, i32 0, i32 4
  store i8 4, ptr %65, align 2
  %66 = getelementptr inbounds nuw %struct.LOCKTAG, ptr %8, i32 0, i32 5
  store i8 1, ptr %66, align 1
  %67 = load i32, ptr %10, align 4
  %68 = call i32 @LockAcquire(ptr noundef %8, i32 noundef %67, i1 noundef zeroext false, i1 noundef zeroext false)
  call void @AcceptInvalidationMessages()
  store i32 0, ptr %11, align 4
  br label %69

69:                                               ; preds = %54, %40, %32, %24
  call void @llvm.lifetime.end.p0(i64 4, ptr %10) #6
  call void @llvm.lifetime.end.p0(i64 8, ptr %9) #6
  %70 = load i32, ptr %11, align 4
  switch i32 %70, label %72 [
    i32 0, label %71
  ]

71:                                               ; preds = %69
  br label %16

72:                                               ; preds = %69
  call void @llvm.lifetime.end.p0(i64 16, ptr %8) #6
  call void @llvm.lifetime.end.p0(i64 6, ptr %7) #6
  call void @llvm.lifetime.end.p0(i64 8, ptr %6) #6
  %73 = load ptr, ptr %3, align 8
  ret ptr %73
}