; Function Attrs: nounwind uwtable
define dso_local ptr @SearchSysCacheLocked1(i32 noundef %0, i64 noundef %1) local_unnamed_addr #0 {
  %3 = alloca %struct.ItemPointerData, align 2
  %4 = alloca %struct.LOCKTAG, align 4
  %5 = sext i32 %0 to i64
  %6 = getelementptr inbounds [85 x ptr], ptr @SysCache, i64 0, i64 %5
  %7 = load ptr, ptr %6, align 8
  call void @llvm.lifetime.start.p0(i64 6, ptr nonnull %3) #11
  call void @llvm.lifetime.start.p0(i64 16, ptr nonnull %4) #11
  store i16 -1, ptr %3, align 2
  %8 = getelementptr inbounds nuw i8, ptr %3, i64 2
  store i16 -1, ptr %8, align 2
  %9 = getelementptr inbounds nuw i8, ptr %3, i64 4
  store i16 0, ptr %9, align 2
  %10 = getelementptr inbounds nuw i8, ptr %7, i64 144
  %11 = getelementptr inbounds nuw i8, ptr %7, i64 136
  %12 = getelementptr inbounds nuw i8, ptr %4, i64 4
  %13 = getelementptr inbounds nuw i8, ptr %4, i64 8
  %14 = getelementptr inbounds nuw i8, ptr %4, i64 12
  %15 = getelementptr inbounds nuw i8, ptr %4, i64 14
  %16 = getelementptr inbounds nuw i8, ptr %4, i64 15
  br label %17

17:                                               ; preds = %29, %2
  %18 = phi ptr [ %.pre, %29 ], [ %7, %2 ]
  %19 = call ptr @SearchCatCache1(ptr noundef %18, i64 noundef %1) #11
  %.val = load i16, ptr %9, align 2
  %.not28 = icmp eq i16 %.val, 0
  %.not = icmp eq ptr %19, null
  br i1 %.not28, label %27, label %20

20:                                               ; preds = %17
  br i1 %.not, label %21, label %23

21:                                               ; preds = %20
  %22 = call zeroext i1 @LockRelease(ptr noundef nonnull %4, i32 noundef 7, i1 noundef zeroext false) #11
  br label %.loopexit

23:                                               ; preds = %20
  %24 = getelementptr inbounds nuw i8, ptr %19, i64 4
  %25 = call zeroext i1 @ItemPointerEquals(ptr noundef nonnull %3, ptr noundef nonnull %24) #11
  br i1 %25, label %.loopexit, label %.split

.split:                                           ; preds = %23
  %26 = call zeroext i1 @LockRelease(ptr noundef nonnull %4, i32 noundef 7, i1 noundef zeroext false) #11
  br label %29

27:                                               ; preds = %17
  br i1 %.not, label %.loopexit, label %.split18

.split18:                                         ; preds = %27
  %28 = getelementptr inbounds nuw i8, ptr %19, i64 4
  br label %29

29:                                               ; preds = %.split, %.split18
  %.sink = phi ptr [ %24, %.split ], [ %28, %.split18 ]
  call void @llvm.memcpy.p0.p0.i64(ptr noundef nonnull align 2 dereferenceable(6) %3, ptr noundef nonnull align 4 dereferenceable(6) %.sink, i64 6, i1 false)
  call void @ReleaseCatCache(ptr noundef nonnull %19) #11
  %30 = load i8, ptr %10, align 8, !range !8, !noundef !9
  %31 = trunc nuw i8 %30 to i1
  %32 = load i32, ptr @MyDatabaseId, align 4
  %33 = select i1 %31, i32 0, i32 %32
  store i32 %33, ptr %4, align 4
  %34 = load i32, ptr %11, align 8
  store i32 %34, ptr %12, align 4
  %.val22 = load i16, ptr %3, align 2
  %.val23 = load i16, ptr %8, align 2
  %35 = zext i16 %.val22 to i32
  %36 = shl nuw i32 %35, 16
  %37 = zext i16 %.val23 to i32
  %38 = or disjoint i32 %36, %37
  store i32 %38, ptr %13, align 4
  %.val24 = load i16, ptr %9, align 2
  store i16 %.val24, ptr %14, align 4
  store i8 4, ptr %15, align 2
  store i8 1, ptr %16, align 1
  %39 = call i32 @LockAcquire(ptr noundef nonnull %4, i32 noundef 7, i1 noundef zeroext false, i1 noundef zeroext false) #11
  call void @AcceptInvalidationMessages() #11
  %.pre = load ptr, ptr %6, align 8
  br label %17

.loopexit:                                        ; preds = %23, %27, %21
  %.1.ph = phi ptr [ null, %21 ], [ %19, %23 ], [ null, %27 ]
  call void @llvm.lifetime.end.p0(i64 16, ptr nonnull %4) #11
  call void @llvm.lifetime.end.p0(i64 6, ptr nonnull %3) #11
  ret ptr %.1.ph
}